; Function Attrs: mustprogress nounwind uwtable
define dso_local void @_ZN5clang14JSONNodeDumper22VisitPackExpansionTypeEPKNS_17PackExpansionTypeE(ptr noundef nonnull align 8 dereferenceable(1312) %0, ptr nocapture noundef readonly %1) local_unnamed_addr #0 align 2 {
  %3 = alloca %"class.llvm::json::Value", align 8
  %4 = getelementptr inbounds i8, ptr %1, i64 20
  %5 = load i32, ptr %4, align 4
  %.not.not.i.not = icmp eq i32 %5, 0
  br i1 %.not.not.i.not, label %11, label %6

6:                                                ; preds = %2
  %7 = add i32 %5, -1
  %8 = getelementptr inbounds nuw i8, ptr %0, i64 1048
  store i16 3, ptr %3, align 8
  %9 = zext i32 %7 to i64
  %10 = getelementptr inbounds nuw i8, ptr %3, i64 8
  store i64 %9, ptr %10, align 8
  tail call void @_ZN4llvm4json7OStream14attributeBeginENS_9StringRefE(ptr noundef nonnull align 8 dereferenceable(176) %8, ptr nonnull @.str.586, i64 13) #20
  call void @_ZN4llvm4json7OStream5valueERKNS0_5ValueE(ptr noundef nonnull align 8 dereferenceable(176) %8, ptr noundef nonnull align 8 dereferenceable(40) %3) #20
  call void @_ZN4llvm4json7OStream12attributeEndEv(ptr noundef nonnull align 8 dereferenceable(176) %8) #20
  call void @_ZN4llvm4json5Value7destroyEv(ptr noundef nonnull align 8 dereferenceable(40) %3) #20
  br label %11

11:                                               ; preds = %6, %2
  ret void
}